target datalayout = "e-m:e-p270:32:32-p271:32:32-p272:64:64-i64:64-i128:128-f80:128-n8:16:32:64-S128"
target triple = "x86_64-pc-linux-gnu"

%"class.base::File" = type <{ %"class.base::ScopedGeneric", [4 x i8], %"class.base::FilePath", [4 x i8], i32, i8, i8, [6 x i8] }>
%"class.base::ScopedGeneric" = type { %"struct.base::ScopedGeneric<int, base::internal::ScopedFDCloseTraits>::Data" }
%"struct.base::ScopedGeneric<int, base::internal::ScopedFDCloseTraits>::Data" = type { i32 }
%"class.base::FilePath" = type { %"class.std::__cxx11::basic_string" }
%"class.std::__cxx11::basic_string" = type { %"struct.std::__cxx11::basic_string<char>::_Alloc_hider", i64, %union.anon }
%"struct.std::__cxx11::basic_string<char>::_Alloc_hider" = type { ptr }
%union.anon = type { i64, [8 x i8] }

; Function Attrs: mustprogress uwtable
define linkonce_odr void @_ZN4base13ScopedGenericIiNS_8internal19ScopedFDCloseTraitsEE15FreeIfNecessaryEv(ptr noundef nonnull align 4 dereferenceable(4) %0) #0 comdat align 2 {
  %2 = alloca ptr, align 8
  store ptr %0, ptr %2, align 8, !tbaa !36
  %3 = load ptr, ptr %2, align 8
  %4 = getelementptr inbounds nuw %"class.base::ScopedGeneric", ptr %3, i32 0, i32 0
  %5 = getelementptr inbounds nuw %"struct.base::ScopedGeneric<int, base::internal::ScopedFDCloseTraits>::Data", ptr %4, i32 0, i32 0
  %6 = load i32, ptr %5, align 4, !tbaa !38
  %7 = call noundef i32 @_ZN4base8internal19ScopedFDCloseTraits12InvalidValueEv()
  %8 = icmp ne i32 %6, %7
  br i1 %8, label %9, label %16

9:                                                ; preds = %1
  %10 = getelementptr inbounds nuw %"class.base::ScopedGeneric", ptr %3, i32 0, i32 0
  %11 = getelementptr inbounds nuw %"struct.base::ScopedGeneric<int, base::internal::ScopedFDCloseTraits>::Data", ptr %10, i32 0, i32 0
  %12 = load i32, ptr %11, align 4, !tbaa !38
  call void @_ZN4base8internal19ScopedFDCloseTraits4FreeEi(i32 noundef %12)
  %13 = call noundef i32 @_ZN4base8internal19ScopedFDCloseTraits12InvalidValueEv()
  %14 = getelementptr inbounds nuw %"class.base::ScopedGeneric", ptr %3, i32 0, i32 0
  %15 = getelementptr inbounds nuw %"struct.base::ScopedGeneric<int, base::internal::ScopedFDCloseTraits>::Data", ptr %14, i32 0, i32 0
  store i32 %13, ptr %15, align 4, !tbaa !38
  br label %16

16:                                               ; preds = %9, %1
  ret void
}

; Function Attrs: mustprogress nounwind uwtable
define linkonce_odr noundef i32 @_ZN4base8internal19ScopedFDCloseTraits12InvalidValueEv() #4 comdat align 2 {
  ret i32 -1
}

; Function Attrs: mustprogress uwtable
define linkonce_odr void @_ZN4base13ScopedGenericIiNS_8internal19ScopedFDCloseTraitsEE5resetERKi(ptr noundef nonnull align 4 dereferenceable(4) %0, ptr noundef nonnull align 4 dereferenceable(4) %1) #0 comdat align 2 {
  %3 = alloca ptr, align 8
  %4 = alloca ptr, align 8
  store ptr %0, ptr %3, align 8, !tbaa !36
  store ptr %1, ptr %4, align 8, !tbaa !42
  %5 = load ptr, ptr %3, align 8
  %6 = getelementptr inbounds nuw %"class.base::ScopedGeneric", ptr %5, i32 0, i32 0
  %7 = getelementptr inbounds nuw %"struct.base::ScopedGeneric<int, base::internal::ScopedFDCloseTraits>::Data", ptr %6, i32 0, i32 0
  %8 = load i32, ptr %7, align 4, !tbaa !38
  %9 = call noundef i32 @_ZN4base8internal19ScopedFDCloseTraits12InvalidValueEv()
  %10 = icmp ne i32 %8, %9
  br i1 %10, label %11, label %19

11:                                               ; preds = %2
  %12 = getelementptr inbounds nuw %"class.base::ScopedGeneric", ptr %5, i32 0, i32 0
  %13 = getelementptr inbounds nuw %"struct.base::ScopedGeneric<int, base::internal::ScopedFDCloseTraits>::Data", ptr %12, i32 0, i32 0
  %14 = load i32, ptr %13, align 4, !tbaa !38
  %15 = load ptr, ptr %4, align 8, !tbaa !42
  %16 = load i32, ptr %15, align 4, !tbaa !41
  %17 = icmp eq i32 %14, %16
  br i1 %17, label %18, label %19

18:                                               ; preds = %11
  call void @abort() #15
  unreachable

19:                                               ; preds = %11, %2
  call void @_ZN4base13ScopedGenericIiNS_8internal19ScopedFDCloseTraitsEE15FreeIfNecessaryEv(ptr noundef nonnull align 4 dereferenceable(4) %5)
  %20 = load ptr, ptr %4, align 8, !tbaa !42
  %21 = load i32, ptr %20, align 4, !tbaa !41
  %22 = getelementptr inbounds nuw %"class.base::ScopedGeneric", ptr %5, i32 0, i32 0
  %23 = getelementptr inbounds nuw %"struct.base::ScopedGeneric<int, base::internal::ScopedFDCloseTraits>::Data", ptr %22, i32 0, i32 0
  store i32 %21, ptr %23, align 4, !tbaa !38
  ret void
}

; Function Attrs: mustprogress uwtable
define void @_ZN4base4File15SetPlatformFileEi(ptr noundef nonnull align 8 dereferenceable(50) %0, i32 noundef %1) #0 align 2 {
  %3 = alloca ptr, align 8
  %4 = alloca i32, align 4
  store ptr %0, ptr %3, align 8, !tbaa !34
  store i32 %1, ptr %4, align 4, !tbaa !41
  %5 = load ptr, ptr %3, align 8
  %6 = getelementptr inbounds nuw %"class.base::File", ptr %5, i32 0, i32 0
  call void @_ZN4base13ScopedGenericIiNS_8internal19ScopedFDCloseTraitsEE5resetERKi(ptr noundef nonnull align 4 dereferenceable(4) %6, ptr noundef nonnull align 4 dereferenceable(4) %4)
  ret void
}