; Function Attrs: mustprogress uwtable
define void @_ZN4base4File15SetPlatformFileEi(ptr noundef nonnull align 8 captures(none) dereferenceable(50) %0, i32 noundef %1) local_unnamed_addr #0 align 2 {
  %3 = load i32, ptr %0, align 8, !tbaa !24
  %.not.i = icmp eq i32 %3, -1
  br i1 %.not.i, label %_ZN4base13ScopedGenericIiNS_8internal19ScopedFDCloseTraitsEE5resetERKi.exit, label %4

4:                                                ; preds = %2
  %5 = icmp eq i32 %3, %1
  br i1 %5, label %6, label %7

6:                                                ; preds = %4
  tail call void @abort() #17
  unreachable

7:                                                ; preds = %4
  tail call void @_ZN4base8internal19ScopedFDCloseTraits4FreeEi(i32 noundef %3)
  br label %_ZN4base13ScopedGenericIiNS_8internal19ScopedFDCloseTraitsEE5resetERKi.exit

_ZN4base13ScopedGenericIiNS_8internal19ScopedFDCloseTraitsEE5resetERKi.exit: ; preds = %2, %7
  store i32 %1, ptr %0, align 8, !tbaa !24
  ret void
}